target datalayout = "e-m:e-p270:32:32-p271:32:32-p272:64:64-i64:64-i128:128-f80:128-n8:16:32:64-S128"
target triple = "x86_64-unknown-linux-gnu"

%"class.google::protobuf::io::FileOutputStream::CopyingFileOutputStream" = type <{ %"class.google::protobuf::io::CopyingOutputStream", i32, i8, i8, [2 x i8], i32, [4 x i8] }>
%"class.google::protobuf::io::CopyingOutputStream" = type { ptr }

; Function Attrs: mustprogress nounwind uwtable
define linkonce_odr hidden void @_ZN6google8protobuf2io19CopyingOutputStreamC2Ev(ptr noundef nonnull align 8 dereferenceable(8) %this) unnamed_addr #5 comdat align 2 {
entry:
  %this.addr = alloca ptr, align 8
  store ptr %this, ptr %this.addr, align 8
  %this1 = load ptr, ptr %this.addr, align 8
  store ptr getelementptr inbounds ({ [5 x ptr] }, ptr @_ZTVN6google8protobuf2io19CopyingOutputStreamE, i32 0, i32 0, i32 2), ptr %this1, align 8
  ret void
}

; Function Attrs: mustprogress nounwind uwtable
define void @_ZN6google8protobuf2io16FileOutputStream23CopyingFileOutputStreamC2Ei(ptr noundef nonnull align 8 dereferenceable(24) %this, i32 noundef %file_descriptor) unnamed_addr #5 align 2 {
entry:
  %this.addr = alloca ptr, align 8
  %file_descriptor.addr = alloca i32, align 4
  store ptr %this, ptr %this.addr, align 8
  store i32 %file_descriptor, ptr %file_descriptor.addr, align 4
  %this1 = load ptr, ptr %this.addr, align 8
  call void @_ZN6google8protobuf2io19CopyingOutputStreamC2Ev(ptr noundef nonnull align 8 dereferenceable(8) %this1) #3
  store ptr getelementptr inbounds ({ [5 x ptr] }, ptr @_ZTVN6google8protobuf2io16FileOutputStream23CopyingFileOutputStreamE, i32 0, i32 0, i32 2), ptr %this1, align 8
  %file_ = getelementptr inbounds %"class.google::protobuf::io::FileOutputStream::CopyingFileOutputStream", ptr %this1, i32 0, i32 1
  %0 = load i32, ptr %file_descriptor.addr, align 4
  store i32 %0, ptr %file_, align 8
  %close_on_delete_ = getelementptr inbounds %"class.google::protobuf::io::FileOutputStream::CopyingFileOutputStream", ptr %this1, i32 0, i32 2
  store i8 0, ptr %close_on_delete_, align 4
  %is_closed_ = getelementptr inbounds %"class.google::protobuf::io::FileOutputStream::CopyingFileOutputStream", ptr %this1, i32 0, i32 3
  store i8 0, ptr %is_closed_, align 1
  %errno_ = getelementptr inbounds %"class.google::protobuf::io::FileOutputStream::CopyingFileOutputStream", ptr %this1, i32 0, i32 5
  store i32 0, ptr %errno_, align 8
  ret void
}