; Function Attrs: mustprogress nofree norecurse nosync nounwind willreturn memory(argmem: write) uwtable
define void @_ZN6google8protobuf2io16FileOutputStream23CopyingFileOutputStreamC2Ei(ptr nocapture noundef nonnull writeonly align 8 dereferenceable(24) %this, i32 noundef %file_descriptor) unnamed_addr #12 align 2 {
entry:
  store ptr getelementptr inbounds ({ [5 x ptr] }, ptr @_ZTVN6google8protobuf2io16FileOutputStream23CopyingFileOutputStreamE, i64 0, i32 0, i64 2), ptr %this, align 8
  %file_ = getelementptr inbounds i8, ptr %this, i64 8
  store i32 %file_descriptor, ptr %file_, align 8
  %close_on_delete_ = getelementptr inbounds i8, ptr %this, i64 12
  store i8 0, ptr %close_on_delete_, align 4
  %is_closed_ = getelementptr inbounds i8, ptr %this, i64 13
  store i8 0, ptr %is_closed_, align 1
  %errno_ = getelementptr inbounds i8, ptr %this, i64 16
  store i32 0, ptr %errno_, align 8
  ret void
}